target datalayout = "e-m:e-p270:32:32-p271:32:32-p272:64:64-i64:64-i128:128-f80:128-n8:16:32:64-S128"
target triple = "x86_64-pc-linux-gnu"

%struct.tsi_handshaker = type { ptr, i8, i8, i8 }
%struct.tsi_handshaker_vtable = type { ptr, ptr, ptr, ptr, ptr, ptr, ptr, ptr }

; Function Attrs: mustprogress uwtable
define void @_Z23tsi_handshaker_shutdownP14tsi_handshaker(ptr noundef %0) #5 {
  %2 = alloca ptr, align 8
  store ptr %0, ptr %2, align 8, !tbaa !24
  %3 = load ptr, ptr %2, align 8, !tbaa !24
  %4 = icmp eq ptr %3, null
  br i1 %4, label %10, label %5

5:                                                ; preds = %1
  %6 = load ptr, ptr %2, align 8, !tbaa !24
  %7 = getelementptr inbounds nuw %struct.tsi_handshaker, ptr %6, i32 0, i32 0
  %8 = load ptr, ptr %7, align 8, !tbaa !26
  %9 = icmp eq ptr %8, null
  br i1 %9, label %10, label %11

10:                                               ; preds = %5, %1
  br label %28

11:                                               ; preds = %5
  %12 = load ptr, ptr %2, align 8, !tbaa !24
  %13 = getelementptr inbounds nuw %struct.tsi_handshaker, ptr %12, i32 0, i32 0
  %14 = load ptr, ptr %13, align 8, !tbaa !26
  %15 = getelementptr inbounds nuw %struct.tsi_handshaker_vtable, ptr %14, i32 0, i32 7
  %16 = load ptr, ptr %15, align 8, !tbaa !56
  %17 = icmp ne ptr %16, null
  br i1 %17, label %18, label %25

18:                                               ; preds = %11
  %19 = load ptr, ptr %2, align 8, !tbaa !24
  %20 = getelementptr inbounds nuw %struct.tsi_handshaker, ptr %19, i32 0, i32 0
  %21 = load ptr, ptr %20, align 8, !tbaa !26
  %22 = getelementptr inbounds nuw %struct.tsi_handshaker_vtable, ptr %21, i32 0, i32 7
  %23 = load ptr, ptr %22, align 8, !tbaa !56
  %24 = load ptr, ptr %2, align 8, !tbaa !24
  call void %23(ptr noundef %24)
  br label %25

25:                                               ; preds = %18, %11
  %26 = load ptr, ptr %2, align 8, !tbaa !24
  %27 = getelementptr inbounds nuw %struct.tsi_handshaker, ptr %26, i32 0, i32 3
  store i8 1, ptr %27, align 2, !tbaa !33
  br label %28

28:                                               ; preds = %25, %10
  ret void
}