; Function Attrs: mustprogress uwtable
define void @_Z23tsi_handshaker_shutdownP14tsi_handshaker(ptr noundef %0) local_unnamed_addr #4 {
  %2 = icmp eq ptr %0, null
  br i1 %2, label %12, label %3

3:                                                ; preds = %1
  %4 = load ptr, ptr %0, align 8, !tbaa !14
  %5 = icmp eq ptr %4, null
  br i1 %5, label %12, label %6

6:                                                ; preds = %3
  %7 = getelementptr inbounds nuw i8, ptr %4, i64 56
  %8 = load ptr, ptr %7, align 8, !tbaa !35
  %.not = icmp eq ptr %8, null
  br i1 %.not, label %10, label %9

9:                                                ; preds = %6
  tail call void %8(ptr noundef nonnull %0)
  br label %10

10:                                               ; preds = %9, %6
  %11 = getelementptr inbounds nuw i8, ptr %0, i64 10
  store i8 1, ptr %11, align 2, !tbaa !21
  br label %12

12:                                               ; preds = %1, %3, %10
  ret void
}